target datalayout = "e-m:e-p270:32:32-p271:32:32-p272:64:64-i64:64-i128:128-f80:128-n8:16:32:64-S128"
target triple = "x86_64-unknown-linux-gnu"

%"class.facebook::jsi::RuntimeDecorator" = type { %"class.facebook::jsi::Runtime", %"class.facebook::jsi::Instrumentation", ptr }
%"class.facebook::jsi::Runtime" = type { ptr }
%"class.facebook::jsi::Instrumentation" = type { ptr }

; Function Attrs: mustprogress uwtable
define linkonce_odr hidden noundef i64 @_ZN8facebook3jsi16RuntimeDecoratorINS0_7RuntimeES2_E4sizeERKNS0_5ArrayE(ptr noundef nonnull align 8 dereferenceable(24) %this, ptr noundef nonnull align 8 dereferenceable(8) %a) unnamed_addr #0 comdat align 2 {
entry:
  %this.addr = alloca ptr, align 8
  %a.addr = alloca ptr, align 8
  store ptr %this, ptr %this.addr, align 8
  store ptr %a, ptr %a.addr, align 8
  %this1 = load ptr, ptr %this.addr, align 8
  %plain_ = getelementptr inbounds %"class.facebook::jsi::RuntimeDecorator", ptr %this1, i32 0, i32 2
  %0 = load ptr, ptr %plain_, align 8
  %1 = load ptr, ptr %a.addr, align 8
  %vtable = load ptr, ptr %0, align 8
  %vfn = getelementptr inbounds ptr, ptr %vtable, i64 55
  %2 = load ptr, ptr %vfn, align 8
  %call = call noundef i64 %2(ptr noundef nonnull align 8 dereferenceable(8) %0, ptr noundef nonnull align 8 dereferenceable(8) %1)
  ret i64 %call
}

; Function Attrs: mustprogress uwtable
define hidden noundef i64 @_ZN8facebook6hermes7tracing14TracingRuntime4sizeERKNS_3jsi5ArrayE(ptr noundef nonnull align 8 dereferenceable(172) %this, ptr noundef nonnull align 8 dereferenceable(8) %arr) unnamed_addr #0 align 2 {
entry:
  %this.addr = alloca ptr, align 8
  %arr.addr = alloca ptr, align 8
  store ptr %this, ptr %this.addr, align 8
  store ptr %arr, ptr %arr.addr, align 8
  %this1 = load ptr, ptr %this.addr, align 8
  %0 = load ptr, ptr %arr.addr, align 8
  %call = call noundef i64 @_ZN8facebook3jsi16RuntimeDecoratorINS0_7RuntimeES2_E4sizeERKNS0_5ArrayE(ptr noundef nonnull align 8 dereferenceable(24) %this1, ptr noundef nonnull align 8 dereferenceable(8) %0)
  ret i64 %call
}